Certificate:
    Data:
        Version: 3 (0x2)
        Serial Number: 1 (0x1)
        Signature Algorithm: md5WithRSAEncryption
        Issuer: C=TW, O=Appropho Inc, CN=IPNC
        Validity
            Not Before: Feb 24 07:09:15 2011 GMT
            Not After : Feb 21 07:09:15 2021 GMT
        Subject: C=TW, ST=Taiwan, O=Appropho Inc, CN=IPNC/emailAddress=support_team@appropho.com
        Subject Public Key Info:
            Public Key Algorithm: rsaEncryption
            RSA Public Key: (1024 bit)
                Modulus (1024 bit):
                    00:dd:27:05:8a:f1:c0:db:d1:4d:2a:e4:5d:9c:04:
                    34:4e:b3:4a:ba:cd:4d:b6:c1:3f:91:98:ee:dd:4d:
                    29:fb:15:d8:b9:5b:83:1c:55:44:c4:31:6c:1a:88:
                    ce:96:42:c5:3c:4e:ea:80:19:0d:ee:7a:8c:9e:ff:
                    82:d1:17:76:06:43:56:3e:eb:62:96:a7:6c:c3:34:
                    9c:c8:1e:7f:dc:ab:72:9e:1b:d9:af:18:f0:54:c0:
                    eb:c8:fb:4d:8e:38:d1:7a:7e:4b:18:8a:19:f3:52:
                    b5:11:92:24:1b:ff:68:f8:99:ce:60:a3:e1:da:d4:
                    b3:2c:de:72:d2:96:32:f9:6b
                Exponent: 65537 (0x10001)
    Signature Algorithm: md5WithRSAEncryption
        1d:51:29:45:96:e0:0d:da:df:cc:26:24:a4:33:b5:4d:0f:21:
        17:a3:83:cb:d3:75:15:99:94:5e:f6:81:4b:bc:d5:89:66:a1:
        ed:d4:34:f6:a4:e4:da:b4:02:3f:06:57:9c:20:fd:2f:80:8b:
        49:ee:63:69:d7:d9:2d:20:45:a7:c8:d7:86:ce:79:9c:d9:85:
        f7:e8:02:b7:e5:ba:66:e8:ab:1c:20:5e:bb:e2:4b:73:03:47:
        18:f6:95:95:df:ac:32:78:08:a7:b7:e8:49:48:bd:d6:a3:23:
        4a:a4:8c:be:44:d1:06:21:17:b5:7e:a1:2a:d6:4f:96:c9:cb:
        82:8a
-----BEGIN CERTIFICATE-----
MIICFTCCAX6gAwIBAgIBATANBgkqhkiG9w0BAQQFADAzMQswCQYDVQQGEwJUVzEV
MBMGA1UEChMMQXBwcm9waG8gSW5jMQ0wCwYDVQQDEwRJUE5DMB4XDTExMDIyNDA3
MDkxNVoXDTIxMDIyMTA3MDkxNVowbjELMAkGA1UEBhMCVFcxDzANBgNVBAgTBlRh
aXdhbjEVMBMGA1UEChMMQXBwcm9waG8gSW5jMQ0wCwYDVQQDEwRJUE5DMSgwJgYJ
KoZIhvcNAQkBFhlzdXBwb3J0X3RlYW1AYXBwcm9waG8uY29tMIGfMA0GCSqGSIb3
DQEBAQUAA4GNADCBiQKBgQDdJwWK8cDb0U0q5F2cBDROs0q6zU22wT+RmO7dTSn7
Fdi5W4McVUTEMWwaiM6WQsU8TuqAGQ3ueoye/4LRF3YGQ1Y+62KWp2zDNJzIHn/c
q3KeG9mvGPBUwOvI+02OONF6fksYihnzUrURkiQb/2j4mc5go+Ha1LMs3nLSljL5
awIDAQABMA0GCSqGSIb3DQEBBAUAA4GBAB1RKUWW4A3a38wmJKQztU0PIRejg8vT
dRWZlF72gUu81Ylmoe3UNPak5Nq0Aj8GV5wg/S+Ai0nuY2nX2S0gRafI14bOeZzZ
hffoArflumboqxwgXrviS3MDRxj2lZXfrDJ4CKe36ElIvdajI0qkjL5E0QYhF7V+
oSrWT5bJy4KK
-----END CERTIFICATE-----
-----BEGIN RSA PRIVATE KEY-----
Proc-Type: 4,ENCRYPTED
DEK-Info: DES-EDE3-CBC,084D5871A0C28F35

a8tnvNAspoggkjbKj+UQPdRyoBVWtwygjPzkje4yrmZQN/5DD2b9p/xknkap5nC4
9yoB2f6ycz3VLIjNtOqidoRfN6gQiuUctN8DWPJ32uUBj/3k6pIO4qk17nL1bwuq
Vq7ImcKWhCGpwVhcfJwrU7syDbs/jqBWME2sxKiRDwMaotEzSV6G+hX4RTAHMlms
TZUr6+W81/Jm8PWGnjUVSzg5YlakzWBBfTNW0AjO7nyCssz5B0u4b99cO11aD3N8
Ej4HTHcSC7ip0uwWbOvYZ+bFXuDkAKgMF7vndnUPXat8ioEJN7RSmWJJfit1XHye
pVtWsCLCsDAriWmMLmPl+010TAOoAskWsYZ6L1IxabekkwRKLxmimxRPJbpAzrOn
qU1nFWRQldcB/8sPdeSyPrGCCBq5i6f2jt33eDEDe0iuo3suZsnz8aYBfF8eAVFC
7aZhEDkpr00BN/nmiZm9tgUn7b073CB7UOdOZdd3CPRQifQXUoSLXKDLdDApGdDE
OaX40FJr6JjM9wxPiRlBaiwZEthpgDKn9QYA780tSknmWWWLvKoNXZbmzFsUqR/h
c/i0UX1GXFbZmr3t0if8my1p13coOgy9Poa6mmZURVRUgvNxgUDZcvqCLfbCWMI0
m3yDwV4EVmlVNfj5B6oTrAnUFX4JShqgKl9GhKzeZvptiFkiDHIIoAgvc+D0edmI
24YFf3t9y3GOTQR68ewYEQ3QkGMoeYug6HKgcPJtgO8aXimf2+lv+jUL3s1uJwP7
AhuGxjLvS8VBFdiKhxzifEPDSZTdyNWXH9gaXHl6dZmmCMW8tUubbg==
-----END RSA PRIVATE KEY-----
